target datalayout = "e-m:e-p270:32:32-p271:32:32-p272:64:64-i64:64-i128:128-f80:128-n8:16:32:64-S128"
target triple = "x86_64-pc-linux-gnu"

%struct.AVInteger = type { [8 x i16] }

@ff_log2_tab = external constant [256 x i8], align 16

; Function Attrs: alwaysinline nounwind willreturn memory(none) uwtable
define internal i32 @ff_log2_16bit_c(i32 noundef %0) #3 {
  %2 = alloca i32, align 4
  %3 = alloca i32, align 4
  store i32 %0, ptr %2, align 4, !tbaa !4
  call void @llvm.lifetime.start.p0(i64 4, ptr %3) #6
  store i32 0, ptr %3, align 4, !tbaa !4
  %4 = load i32, ptr %2, align 4, !tbaa !4
  %5 = and i32 %4, 65280
  %6 = icmp ne i32 %5, 0
  br i1 %6, label %7, label %12

7:                                                ; preds = %1
  %8 = load i32, ptr %2, align 4, !tbaa !4
  %9 = lshr i32 %8, 8
  store i32 %9, ptr %2, align 4, !tbaa !4
  %10 = load i32, ptr %3, align 4, !tbaa !4
  %11 = add nsw i32 %10, 8
  store i32 %11, ptr %3, align 4, !tbaa !4
  br label %12

12:                                               ; preds = %7, %1
  %13 = load i32, ptr %2, align 4, !tbaa !4
  %14 = zext i32 %13 to i64
  %15 = getelementptr inbounds nuw [256 x i8], ptr @ff_log2_tab, i64 0, i64 %14
  %16 = load i8, ptr %15, align 1, !tbaa !13
  %17 = zext i8 %16 to i32
  %18 = load i32, ptr %3, align 4, !tbaa !4
  %19 = add nsw i32 %18, %17
  store i32 %19, ptr %3, align 4, !tbaa !4
  %20 = load i32, ptr %3, align 4, !tbaa !4
  call void @llvm.lifetime.end.p0(i64 4, ptr %3) #6
  ret i32 %20
}

; Function Attrs: nounwind willreturn memory(none) uwtable
define i32 @av_log2_i(i64 %0, i64 %1) #0 {
  %3 = alloca i32, align 4
  %4 = alloca %struct.AVInteger, align 2
  %5 = alloca i32, align 4
  %6 = alloca i32, align 4
  %7 = getelementptr inbounds nuw { i64, i64 }, ptr %4, i32 0, i32 0
  store i64 %0, ptr %7, align 2
  %8 = getelementptr inbounds nuw { i64, i64 }, ptr %4, i32 0, i32 1
  store i64 %1, ptr %8, align 2
  call void @llvm.lifetime.start.p0(i64 4, ptr %5) #6
  store i32 7, ptr %5, align 4, !tbaa !4
  br label %9

9:                                                ; preds = %31, %2
  %10 = load i32, ptr %5, align 4, !tbaa !4
  %11 = icmp sge i32 %10, 0
  br i1 %11, label %12, label %34

12:                                               ; preds = %9
  %13 = getelementptr inbounds nuw %struct.AVInteger, ptr %4, i32 0, i32 0
  %14 = load i32, ptr %5, align 4, !tbaa !4
  %15 = sext i32 %14 to i64
  %16 = getelementptr inbounds [8 x i16], ptr %13, i64 0, i64 %15
  %17 = load i16, ptr %16, align 2, !tbaa !8
  %18 = icmp ne i16 %17, 0
  br i1 %18, label %19, label %30

19:                                               ; preds = %12
  %20 = getelementptr inbounds nuw %struct.AVInteger, ptr %4, i32 0, i32 0
  %21 = load i32, ptr %5, align 4, !tbaa !4
  %22 = sext i32 %21 to i64
  %23 = getelementptr inbounds [8 x i16], ptr %20, i64 0, i64 %22
  %24 = load i16, ptr %23, align 2, !tbaa !8
  %25 = zext i16 %24 to i32
  %26 = call i32 @ff_log2_16bit_c(i32 noundef %25) #7
  %27 = load i32, ptr %5, align 4, !tbaa !4
  %28 = mul nsw i32 16, %27
  %29 = add nsw i32 %26, %28
  store i32 %29, ptr %3, align 4
  store i32 1, ptr %6, align 4
  br label %35

30:                                               ; preds = %12
  br label %31

31:                                               ; preds = %30
  %32 = load i32, ptr %5, align 4, !tbaa !4
  %33 = add nsw i32 %32, -1
  store i32 %33, ptr %5, align 4, !tbaa !4
  br label %9, !llvm.loop !15

34:                                               ; preds = %9
  store i32 -1, ptr %3, align 4
  store i32 1, ptr %6, align 4
  br label %35

35:                                               ; preds = %34, %19
  call void @llvm.lifetime.end.p0(i64 4, ptr %5) #6
  %36 = load i32, ptr %3, align 4
  ret i32 %36
}

; Function Attrs: nounwind willreturn memory(none) uwtable
define { i64, i64 } @av_mul_i(i64 %0, i64 %1, i64 %2, i64 %3) #0 {
  %5 = alloca %struct.AVInteger, align 2
  %6 = alloca %struct.AVInteger, align 2
  %7 = alloca %struct.AVInteger, align 2
  %8 = alloca i32, align 4
  %9 = alloca i32, align 4
  %10 = alloca i32, align 4
  %11 = alloca i32, align 4
  %12 = alloca i32, align 4
  %13 = getelementptr inbounds nuw { i64, i64 }, ptr %6, i32 0, i32 0
  store i64 %0, ptr %13, align 2
  %14 = getelementptr inbounds nuw { i64, i64 }, ptr %6, i32 0, i32 1
  store i64 %1, ptr %14, align 2
  %15 = getelementptr inbounds nuw { i64, i64 }, ptr %7, i32 0, i32 0
  store i64 %2, ptr %15, align 2
  %16 = getelementptr inbounds nuw { i64, i64 }, ptr %7, i32 0, i32 1
  store i64 %3, ptr %16, align 2
  call void @llvm.lifetime.start.p0(i64 4, ptr %8) #6
  call void @llvm.lifetime.start.p0(i64 4, ptr %9) #6
  call void @llvm.lifetime.start.p0(i64 4, ptr %10) #6
  %17 = getelementptr inbounds nuw { i64, i64 }, ptr %6, i32 0, i32 0
  %18 = load i64, ptr %17, align 2
  %19 = getelementptr inbounds nuw { i64, i64 }, ptr %6, i32 0, i32 1
  %20 = load i64, ptr %19, align 2
  %21 = call i32 @av_log2_i(i64 %18, i64 %20) #7
  %22 = add nsw i32 %21, 16
  %23 = ashr i32 %22, 4
  store i32 %23, ptr %10, align 4, !tbaa !4
  call void @llvm.lifetime.start.p0(i64 4, ptr %11) #6
  %24 = getelementptr inbounds nuw { i64, i64 }, ptr %7, i32 0, i32 0
  %25 = load i64, ptr %24, align 2
  %26 = getelementptr inbounds nuw { i64, i64 }, ptr %7, i32 0, i32 1
  %27 = load i64, ptr %26, align 2
  %28 = call i32 @av_log2_i(i64 %25, i64 %27) #7
  %29 = add nsw i32 %28, 16
  %30 = ashr i32 %29, 4
  store i32 %30, ptr %11, align 4, !tbaa !4
  call void @llvm.memset.p0.i64(ptr align 2 %5, i8 0, i64 16, i1 false)
  store i32 0, ptr %8, align 4, !tbaa !4
  br label %31

31:                                               ; preds = %92, %4
  %32 = load i32, ptr %8, align 4, !tbaa !4
  %33 = load i32, ptr %10, align 4, !tbaa !4
  %34 = icmp slt i32 %32, %33
  br i1 %34, label %35, label %95

35:                                               ; preds = %31
  call void @llvm.lifetime.start.p0(i64 4, ptr %12) #6
  store i32 0, ptr %12, align 4, !tbaa !4
  %36 = getelementptr inbounds nuw %struct.AVInteger, ptr %6, i32 0, i32 0
  %37 = load i32, ptr %8, align 4, !tbaa !4
  %38 = sext i32 %37 to i64
  %39 = getelementptr inbounds [8 x i16], ptr %36, i64 0, i64 %38
  %40 = load i16, ptr %39, align 2, !tbaa !8
  %41 = icmp ne i16 %40, 0
  br i1 %41, label %42, label %91

42:                                               ; preds = %35
  %43 = load i32, ptr %8, align 4, !tbaa !4
  store i32 %43, ptr %9, align 4, !tbaa !4
  br label %44

44:                                               ; preds = %87, %42
  %45 = load i32, ptr %9, align 4, !tbaa !4
  %46 = icmp slt i32 %45, 8
  br i1 %46, label %47, label %53

47:                                               ; preds = %44
  %48 = load i32, ptr %9, align 4, !tbaa !4
  %49 = load i32, ptr %8, align 4, !tbaa !4
  %50 = sub nsw i32 %48, %49
  %51 = load i32, ptr %11, align 4, !tbaa !4
  %52 = icmp sle i32 %50, %51
  br label %53

53:                                               ; preds = %47, %44
  %54 = phi i1 [ false, %44 ], [ %52, %47 ]
  br i1 %54, label %55, label %90

55:                                               ; preds = %53
  %56 = load i32, ptr %12, align 4, !tbaa !4
  %57 = lshr i32 %56, 16
  %58 = getelementptr inbounds nuw %struct.AVInteger, ptr %5, i32 0, i32 0
  %59 = load i32, ptr %9, align 4, !tbaa !4
  %60 = sext i32 %59 to i64
  %61 = getelementptr inbounds [8 x i16], ptr %58, i64 0, i64 %60
  %62 = load i16, ptr %61, align 2, !tbaa !8
  %63 = zext i16 %62 to i32
  %64 = add i32 %57, %63
  %65 = getelementptr inbounds nuw %struct.AVInteger, ptr %6, i32 0, i32 0
  %66 = load i32, ptr %8, align 4, !tbaa !4
  %67 = sext i32 %66 to i64
  %68 = getelementptr inbounds [8 x i16], ptr %65, i64 0, i64 %67
  %69 = load i16, ptr %68, align 2, !tbaa !8
  %70 = zext i16 %69 to i32
  %71 = getelementptr inbounds nuw %struct.AVInteger, ptr %7, i32 0, i32 0
  %72 = load i32, ptr %9, align 4, !tbaa !4
  %73 = load i32, ptr %8, align 4, !tbaa !4
  %74 = sub nsw i32 %72, %73
  %75 = sext i32 %74 to i64
  %76 = getelementptr inbounds [8 x i16], ptr %71, i64 0, i64 %75
  %77 = load i16, ptr %76, align 2, !tbaa !8
  %78 = zext i16 %77 to i32
  %79 = mul i32 %70, %78
  %80 = add i32 %64, %79
  store i32 %80, ptr %12, align 4, !tbaa !4
  %81 = load i32, ptr %12, align 4, !tbaa !4
  %82 = trunc i32 %81 to i16
  %83 = getelementptr inbounds nuw %struct.AVInteger, ptr %5, i32 0, i32 0
  %84 = load i32, ptr %9, align 4, !tbaa !4
  %85 = sext i32 %84 to i64
  %86 = getelementptr inbounds [8 x i16], ptr %83, i64 0, i64 %85
  store i16 %82, ptr %86, align 2, !tbaa !8
  br label %87

87:                                               ; preds = %55
  %88 = load i32, ptr %9, align 4, !tbaa !4
  %89 = add nsw i32 %88, 1
  store i32 %89, ptr %9, align 4, !tbaa !4
  br label %44, !llvm.loop !16

90:                                               ; preds = %53
  br label %91

91:                                               ; preds = %90, %35
  call void @llvm.lifetime.end.p0(i64 4, ptr %12) #6
  br label %92

92:                                               ; preds = %91
  %93 = load i32, ptr %8, align 4, !tbaa !4
  %94 = add nsw i32 %93, 1
  store i32 %94, ptr %8, align 4, !tbaa !4
  br label %31, !llvm.loop !17

95:                                               ; preds = %31
  call void @llvm.lifetime.end.p0(i64 4, ptr %11) #6
  call void @llvm.lifetime.end.p0(i64 4, ptr %10) #6
  call void @llvm.lifetime.end.p0(i64 4, ptr %9) #6
  call void @llvm.lifetime.end.p0(i64 4, ptr %8) #6
  %96 = getelementptr inbounds nuw %struct.AVInteger, ptr %5, i32 0, i32 0
  %97 = load { i64, i64 }, ptr %96, align 2
  ret { i64, i64 } %97
}