; Function Attrs: mustprogress nofree norecurse nosync nounwind willreturn memory(none) uwtable
define { i64, i64 } @av_mul_i(i64 %0, i64 %1, i64 %2, i64 %3) local_unnamed_addr #0 {
  %5 = alloca %struct.AVInteger, align 8
  %6 = alloca %struct.AVInteger, align 8
  %7 = alloca %struct.AVInteger, align 8
  %8 = alloca %struct.AVInteger, align 8
  %9 = alloca %struct.AVInteger, align 8
  store i64 %0, ptr %8, align 8
  %10 = getelementptr inbounds nuw i8, ptr %8, i64 8
  store i64 %1, ptr %10, align 8
  store i64 %2, ptr %9, align 8
  %11 = getelementptr inbounds nuw i8, ptr %9, i64 8
  store i64 %3, ptr %11, align 8
  call void @llvm.lifetime.start.p0(i64 16, ptr nonnull %6)
  store i64 %0, ptr %6, align 8
  %12 = getelementptr inbounds nuw i8, ptr %6, i64 8
  store i64 %1, ptr %12, align 8
  br label %13

13:                                               ; preds = %29, %4
  %.09.i = phi i32 [ 7, %4 ], [ %30, %29 ]
  %14 = zext nneg i32 %.09.i to i64
  %15 = getelementptr inbounds nuw [8 x i16], ptr %6, i64 0, i64 %14
  %16 = load i16, ptr %15, align 2, !tbaa !4
  %.not.i = icmp eq i16 %16, 0
  br i1 %.not.i, label %29, label %17

17:                                               ; preds = %13
  %18 = zext i16 %16 to i32
  %.not.i.i = icmp ult i16 %16, 256
  %19 = lshr i32 %18, 8
  %spec.select.i.i = select i1 %.not.i.i, i32 %18, i32 %19
  %spec.select7.i.i = select i1 %.not.i.i, i32 0, i32 8
  %20 = zext nneg i32 %spec.select.i.i to i64
  %21 = getelementptr inbounds nuw [256 x i8], ptr @ff_log2_tab, i64 0, i64 %20
  %22 = load i8, ptr %21, align 1, !tbaa !10
  %23 = zext i8 %22 to i32
  %24 = shl nsw i32 %.09.i, 4
  %25 = add i32 %24, 16
  %26 = or disjoint i32 %25, %spec.select7.i.i
  %27 = add i32 %26, %23
  %28 = ashr i32 %27, 4
  br label %av_log2_i.exit

29:                                               ; preds = %13
  %30 = add nsw i32 %.09.i, -1
  %.not12.i = icmp eq i32 %.09.i, 0
  br i1 %.not12.i, label %av_log2_i.exit, label %13, !llvm.loop !12

av_log2_i.exit:                                   ; preds = %29, %17
  %.06.i = phi i32 [ %28, %17 ], [ 0, %29 ]
  call void @llvm.lifetime.end.p0(i64 16, ptr nonnull %6)
  call void @llvm.lifetime.start.p0(i64 16, ptr nonnull %5)
  store i64 %2, ptr %5, align 8
  %31 = getelementptr inbounds nuw i8, ptr %5, i64 8
  store i64 %3, ptr %31, align 8
  br label %32

32:                                               ; preds = %49, %av_log2_i.exit
  %.09.i21 = phi i32 [ 7, %av_log2_i.exit ], [ %50, %49 ]
  %33 = zext nneg i32 %.09.i21 to i64
  %34 = getelementptr inbounds nuw [8 x i16], ptr %5, i64 0, i64 %33
  %35 = load i16, ptr %34, align 2, !tbaa !4
  %.not.i22 = icmp eq i16 %35, 0
  br i1 %.not.i22, label %49, label %36

36:                                               ; preds = %32
  %37 = zext i16 %35 to i32
  %.not.i.i23 = icmp ult i16 %35, 256
  %38 = lshr i32 %37, 8
  %spec.select.i.i24 = select i1 %.not.i.i23, i32 %37, i32 %38
  %spec.select7.i.i25 = select i1 %.not.i.i23, i32 0, i32 8
  %39 = zext nneg i32 %spec.select.i.i24 to i64
  %40 = getelementptr inbounds nuw [256 x i8], ptr @ff_log2_tab, i64 0, i64 %39
  %41 = load i8, ptr %40, align 1, !tbaa !10
  %42 = zext i8 %41 to i32
  %43 = shl nsw i32 %.09.i21, 4
  %44 = add i32 %43, 16
  %45 = or disjoint i32 %44, %spec.select7.i.i25
  %46 = add i32 %45, %42
  %47 = ashr i32 %46, 4
  %48 = add nsw i32 %47, 1
  br label %av_log2_i.exit28

49:                                               ; preds = %32
  %50 = add nsw i32 %.09.i21, -1
  %.not12.i27 = icmp eq i32 %.09.i21, 0
  br i1 %.not12.i27, label %av_log2_i.exit28, label %32, !llvm.loop !12

av_log2_i.exit28:                                 ; preds = %49, %36
  %.06.i26 = phi i32 [ %48, %36 ], [ 1, %49 ]
  call void @llvm.lifetime.end.p0(i64 16, ptr nonnull %5)
  call void @llvm.memset.p0.i64(ptr noundef nonnull align 8 dereferenceable(16) %7, i8 0, i64 16, i1 false)
  %51 = icmp sgt i32 %.06.i, 0
  br i1 %51, label %.lr.ph39.preheader, label %._crit_edge

.lr.ph39.preheader:                               ; preds = %av_log2_i.exit28
  %smax = tail call i32 @llvm.smax.i32(i32 %.06.i26, i32 0)
  %52 = zext nneg i32 %smax to i64
  %wide.trip.count56 = zext nneg i32 %.06.i to i64
  br label %.lr.ph39

.lr.ph39:                                         ; preds = %.lr.ph39.preheader, %.critedge
  %indvars.iv51 = phi i64 [ %52, %.lr.ph39.preheader ], [ %indvars.iv.next52, %.critedge ]
  %indvars.iv = phi i64 [ 0, %.lr.ph39.preheader ], [ %indvars.iv.next, %.critedge ]
  %53 = getelementptr inbounds nuw [8 x i16], ptr %8, i64 0, i64 %indvars.iv
  %54 = load i16, ptr %53, align 2, !tbaa !4
  %.not = icmp ne i16 %54, 0
  %55 = icmp samesign ult i64 %indvars.iv, 8
  %or.cond = select i1 %.not, i1 %55, i1 false
  br i1 %or.cond, label %.lr.ph, label %.critedge

.lr.ph:                                           ; preds = %.lr.ph39
  %56 = zext i16 %54 to i32
  br label %57

57:                                               ; preds = %.lr.ph, %58
  %indvars.iv45 = phi i64 [ %indvars.iv, %.lr.ph ], [ %indvars.iv.next46, %58 ]
  %.035 = phi i32 [ 0, %.lr.ph ], [ %69, %58 ]
  %exitcond = icmp eq i64 %indvars.iv45, %indvars.iv51
  br i1 %exitcond, label %.critedge, label %58

58:                                               ; preds = %57
  %59 = sub nuw nsw i64 %indvars.iv45, %indvars.iv
  %60 = lshr i32 %.035, 16
  %61 = getelementptr inbounds nuw [8 x i16], ptr %7, i64 0, i64 %indvars.iv45
  %62 = load i16, ptr %61, align 2, !tbaa !4
  %63 = zext i16 %62 to i32
  %64 = add nuw nsw i32 %60, %63
  %65 = getelementptr inbounds nuw [8 x i16], ptr %9, i64 0, i64 %59
  %66 = load i16, ptr %65, align 2, !tbaa !4
  %67 = zext i16 %66 to i32
  %68 = mul nuw i32 %67, %56
  %69 = add nuw i32 %64, %68
  %70 = trunc i32 %69 to i16
  store i16 %70, ptr %61, align 2, !tbaa !4
  %indvars.iv.next46 = add nuw nsw i64 %indvars.iv45, 1
  %exitcond50.not = icmp eq i64 %indvars.iv.next46, 8
  br i1 %exitcond50.not, label %.critedge, label %57, !llvm.loop !13

.critedge:                                        ; preds = %58, %57, %.lr.ph39
  %indvars.iv.next = add nuw nsw i64 %indvars.iv, 1
  %indvars.iv.next52 = add nuw nsw i64 %indvars.iv51, 1
  %exitcond57.not = icmp eq i64 %indvars.iv.next, %wide.trip.count56
  br i1 %exitcond57.not, label %._crit_edge.loopexit, label %.lr.ph39, !llvm.loop !14

._crit_edge.loopexit:                             ; preds = %.critedge
  %.fca.0.load.pre = load i64, ptr %7, align 8
  %.fca.1.gep.phi.trans.insert = getelementptr inbounds nuw i8, ptr %7, i64 8
  %.fca.1.load.pre = load i64, ptr %.fca.1.gep.phi.trans.insert, align 8
  br label %._crit_edge

._crit_edge:                                      ; preds = %._crit_edge.loopexit, %av_log2_i.exit28
  %.fca.1.load = phi i64 [ %.fca.1.load.pre, %._crit_edge.loopexit ], [ 0, %av_log2_i.exit28 ]
  %.fca.0.load = phi i64 [ %.fca.0.load.pre, %._crit_edge.loopexit ], [ 0, %av_log2_i.exit28 ]
  %.fca.0.insert = insertvalue { i64, i64 } poison, i64 %.fca.0.load, 0
  %.fca.1.insert = insertvalue { i64, i64 } %.fca.0.insert, i64 %.fca.1.load, 1
  ret { i64, i64 } %.fca.1.insert
}